; Function Attrs: mustprogress uwtable
define hidden void @_ZN2cv17QRCodeDecoderImpl10decodeByteERNSt7__cxx1112basic_stringIcSt11char_traitsIcESaIcEEE(ptr noundef nonnull align 8 dereferenceable(72) %0, ptr noundef nonnull align 8 dereferenceable(32) %1) local_unnamed_addr #4 align 2 personality ptr @__gxx_personality_v0 {
  %3 = getelementptr inbounds nuw i8, ptr %0, i64 32
  %4 = getelementptr inbounds nuw i8, ptr %0, i64 24
  %5 = load i32, ptr %4, align 8, !tbaa !229
  %6 = icmp slt i32 %5, 10
  %7 = select i1 %6, i32 8, i32 16
  %8 = tail call noundef i32 @_ZN2cv17QRCodeDecoderImpl9Bitstream4nextEi(ptr noundef nonnull align 8 dereferenceable(40) %3, i32 noundef %7)
  %9 = icmp sgt i32 %8, 0
  br i1 %9, label %.lr.ph, label %._crit_edge

.lr.ph:                                           ; preds = %2
  %10 = getelementptr inbounds nuw i8, ptr %1, i64 8
  %11 = getelementptr inbounds nuw i8, ptr %1, i64 16
  br label %12

._crit_edge:                                      ; preds = %_ZNSt7__cxx1112basic_stringIcSt11char_traitsIcESaIcEEpLEc.exit, %2
  ret void

12:                                               ; preds = %.lr.ph, %_ZNSt7__cxx1112basic_stringIcSt11char_traitsIcESaIcEEpLEc.exit
  %.04 = phi i32 [ 0, %.lr.ph ], [ %29, %_ZNSt7__cxx1112basic_stringIcSt11char_traitsIcESaIcEEpLEc.exit ]
  %13 = tail call noundef i32 @_ZN2cv17QRCodeDecoderImpl9Bitstream4nextEi(ptr noundef nonnull align 8 dereferenceable(40) %3, i32 noundef 8)
  %14 = trunc i32 %13 to i8
  %15 = load i64, ptr %10, align 8, !tbaa !21
  %16 = add i64 %15, 1
  %17 = load ptr, ptr %1, align 8, !tbaa !15
  %18 = icmp eq ptr %17, %11
  br i1 %18, label %19, label %_ZNKSt7__cxx1112basic_stringIcSt11char_traitsIcESaIcEE8capacityEv.exit.i.i

19:                                               ; preds = %12
  %20 = icmp ult i64 %15, 16
  tail call void @llvm.assume(i1 %20)
  br label %_ZNKSt7__cxx1112basic_stringIcSt11char_traitsIcESaIcEE8capacityEv.exit.i.i

_ZNKSt7__cxx1112basic_stringIcSt11char_traitsIcESaIcEE8capacityEv.exit.i.i: ; preds = %19, %12
  %21 = load i64, ptr %11, align 8
  %22 = select i1 %18, i64 15, i64 %21
  %23 = icmp ugt i64 %16, %22
  br i1 %23, label %24, label %_ZNSt7__cxx1112basic_stringIcSt11char_traitsIcESaIcEEpLEc.exit

24:                                               ; preds = %_ZNKSt7__cxx1112basic_stringIcSt11char_traitsIcESaIcEE8capacityEv.exit.i.i
  tail call void @_ZNSt7__cxx1112basic_stringIcSt11char_traitsIcESaIcEE9_M_mutateEmmPKcm(ptr noundef nonnull align 8 dereferenceable(32) %1, i64 noundef %15, i64 noundef 0, ptr noundef null, i64 noundef 1)
  %.pre.i.i = load ptr, ptr %1, align 8, !tbaa !15
  br label %_ZNSt7__cxx1112basic_stringIcSt11char_traitsIcESaIcEEpLEc.exit

_ZNSt7__cxx1112basic_stringIcSt11char_traitsIcESaIcEEpLEc.exit: ; preds = %_ZNKSt7__cxx1112basic_stringIcSt11char_traitsIcESaIcEE8capacityEv.exit.i.i, %24
  %25 = phi ptr [ %.pre.i.i, %24 ], [ %17, %_ZNKSt7__cxx1112basic_stringIcSt11char_traitsIcESaIcEE8capacityEv.exit.i.i ]
  %26 = getelementptr inbounds nuw i8, ptr %25, i64 %15
  store i8 %14, ptr %26, align 1, !tbaa !57
  store i64 %16, ptr %10, align 8, !tbaa !21
  %27 = load ptr, ptr %1, align 8, !tbaa !15
  %28 = getelementptr inbounds nuw i8, ptr %27, i64 %16
  store i8 0, ptr %28, align 1, !tbaa !57
  %29 = add nuw nsw i32 %.04, 1
  %exitcond.not = icmp eq i32 %29, %8
  br i1 %exitcond.not, label %._crit_edge, label %12, !llvm.loop !317
}